; ModuleID = '26/948.c'
source_filename = "26/948.c"
target datalayout = "e-m:e-p270:32:32-p271:32:32-p272:64:64-i64:64-f80:128-n8:16:32:64-S128"
target triple = "x86_64-pc-linux-gnu"

; Function Attrs: noinline nounwind uwtable
define dso_local i32 @main() #0 {
  %1 = alloca i32, align 4
  %2 = alloca i32, align 4
  %3 = alloca i32, align 4
  %4 = alloca i32, align 4
  %5 = alloca [101 x i8], align 16
  %6 = alloca [102 x i8], align 16
  store i32 0, i32* %1, align 4
  store i32 0, i32* %3, align 4
  store i32 0, i32* %4, align 4
  %7 = getelementptr inbounds [101 x i8], [101 x i8]* %5, i64 0, i64 0
  %8 = call i32 (i8*, ...) bitcast (i32 (...)* @gets to i32 (i8*, ...)*)(i8* %7)
  store i32 0, i32* %2, align 4
  br label %9

9:                                                ; preds = %16, %0
  %10 = load i32, i32* %2, align 4
  %11 = icmp slt i32 %10, 100
  br i1 %11, label %12, label %19

12:                                               ; preds = %9
  %13 = load i32, i32* %2, align 4
  %14 = sext i32 %13 to i64
  %15 = getelementptr inbounds [102 x i8], [102 x i8]* %6, i64 0, i64 %14
  store i8 32, i8* %15, align 1
  br label %16

16:                                               ; preds = %12
  %17 = load i32, i32* %2, align 4
  %18 = add nsw i32 %17, 1
  store i32 %18, i32* %2, align 4
  br label %9

19:                                               ; preds = %9
  store i32 0, i32* %2, align 4
  br label %20

20:                                               ; preds = %50, %19
  %21 = load i32, i32* %2, align 4
  %22 = sext i32 %21 to i64
  %23 = getelementptr inbounds [101 x i8], [101 x i8]* %5, i64 0, i64 %22
  %24 = load i8, i8* %23, align 1
  %25 = sext i8 %24 to i32
  %26 = icmp eq i32 %25, 0
  %27 = xor i1 %26, true
  br i1 %27, label %28, label %53

28:                                               ; preds = %20
  %29 = load i32, i32* %2, align 4
  %30 = sext i32 %29 to i64
  %31 = getelementptr inbounds [101 x i8], [101 x i8]* %5, i64 0, i64 %30
  %32 = load i8, i8* %31, align 1
  %33 = sext i8 %32 to i32
  %34 = icmp eq i32 %33, 32
  br i1 %34, label %48, label %35

35:                                               ; preds = %28
  %36 = load i32, i32* %3, align 4
  %37 = load i32, i32* %4, align 4
  %38 = add nsw i32 %36, %37
  store i32 %38, i32* %3, align 4
  %39 = load i32, i32* %2, align 4
  %40 = sext i32 %39 to i64
  %41 = getelementptr inbounds [101 x i8], [101 x i8]* %5, i64 0, i64 %40
  %42 = load i8, i8* %41, align 1
  %43 = load i32, i32* %3, align 4
  %44 = sext i32 %43 to i64
  %45 = getelementptr inbounds [102 x i8], [102 x i8]* %6, i64 0, i64 %44
  store i8 %42, i8* %45, align 1
  %46 = load i32, i32* %3, align 4
  %47 = add nsw i32 %46, 1
  store i32 %47, i32* %3, align 4
  store i32 0, i32* %4, align 4
  br label %49

48:                                               ; preds = %28
  store i32 1, i32* %4, align 4
  br label %49

49:                                               ; preds = %48, %35
  br label %50

50:                                               ; preds = %49
  %51 = load i32, i32* %2, align 4
  %52 = add nsw i32 %51, 1
  store i32 %52, i32* %2, align 4
  br label %20

53:                                               ; preds = %20
  %54 = load i32, i32* %3, align 4
  %55 = sext i32 %54 to i64
  %56 = getelementptr inbounds [102 x i8], [102 x i8]* %6, i64 0, i64 %55
  store i8 0, i8* %56, align 1
  %57 = getelementptr inbounds [102 x i8], [102 x i8]* %6, i64 0, i64 0
  %58 = call i32 @puts(i8* %57)
  ret i32 0
}

declare dso_local i32 @gets(...) #1

declare dso_local i32 @puts(i8*) #1


!llvm.module.flags = !{!0}
!llvm.ident = !{!1}

!0 = !{i32 1, !"wchar_size", i32 4}
!1 = !{!"clang version 10.0.0-4ubuntu1 "}
