; ModuleID = 'source-C-CXX/25/948.c'
source_filename = "source-C-CXX/25/948.c"
target datalayout = "e-m:e-p270:32:32-p271:32:32-p272:64:64-i64:64-f80:128-n8:16:32:64-S128"
target triple = "x86_64-pc-linux-gnu"

; Function Attrs: nounwind sspstrong uwtable
define dso_local i32 @main() local_unnamed_addr #0 {
  %1 = alloca [101 x i8], align 16
  %2 = alloca [102 x i8], align 16
  %3 = getelementptr inbounds [102 x i8], [102 x i8]* %2, i64 0, i64 0
  %4 = getelementptr inbounds [101 x i8], [101 x i8]* %1, i64 0, i64 0
  call void @llvm.lifetime.start.p0i8(i64 101, i8* nonnull %4) #5
  %5 = getelementptr inbounds [102 x i8], [102 x i8]* %2, i64 0, i64 0
  call void @llvm.lifetime.start.p0i8(i64 102, i8* nonnull %5) #5
  %6 = call i32 (i8*, ...) bitcast (i32 (...)* @gets to i32 (i8*, ...)*)(i8* nonnull %4) #5
  call void @llvm.memset.p0i8.i64(i8* noundef nonnull align 16 dereferenceable(100) %3, i8 32, i64 100, i1 false)
  br label %7

7:                                                ; preds = %0, %18
  %8 = phi i64 [ 0, %0 ], [ %21, %18 ]
  %9 = phi i32 [ 0, %0 ], [ %19, %18 ]
  %10 = phi i32 [ 0, %0 ], [ %20, %18 ]
  %11 = getelementptr inbounds [101 x i8], [101 x i8]* %1, i64 0, i64 %8
  %12 = load i8, i8* %11, align 1, !tbaa !5
  switch i8 %12, label %13 [
    i8 0, label %22
    i8 32, label %18
  ]

13:                                               ; preds = %7
  %14 = add nsw i32 %10, %9
  %15 = sext i32 %14 to i64
  %16 = getelementptr inbounds [102 x i8], [102 x i8]* %2, i64 0, i64 %15
  store i8 %12, i8* %16, align 1, !tbaa !5
  %17 = add nsw i32 %14, 1
  br label %18

18:                                               ; preds = %7, %13
  %19 = phi i32 [ %17, %13 ], [ %9, %7 ]
  %20 = phi i32 [ 0, %13 ], [ 1, %7 ]
  %21 = add nuw i64 %8, 1
  br label %7, !llvm.loop !8

22:                                               ; preds = %7
  %23 = sext i32 %9 to i64
  %24 = getelementptr inbounds [102 x i8], [102 x i8]* %2, i64 0, i64 %23
  store i8 0, i8* %24, align 1, !tbaa !5
  %25 = call i32 @puts(i8* nonnull %5)
  call void @llvm.lifetime.end.p0i8(i64 102, i8* nonnull %5) #5
  call void @llvm.lifetime.end.p0i8(i64 101, i8* nonnull %4) #5
  ret i32 0
}

; Function Attrs: argmemonly mustprogress nofree nosync nounwind willreturn
declare void @llvm.lifetime.start.p0i8(i64 immarg, i8* nocapture) #1

declare i32 @gets(...) local_unnamed_addr #2

; Function Attrs: nofree nounwind
declare noundef i32 @puts(i8* nocapture noundef readonly) local_unnamed_addr #3

; Function Attrs: argmemonly mustprogress nofree nosync nounwind willreturn
declare void @llvm.lifetime.end.p0i8(i64 immarg, i8* nocapture) #1

; Function Attrs: argmemonly nofree nounwind willreturn writeonly
declare void @llvm.memset.p0i8.i64(i8* nocapture writeonly, i8, i64, i1 immarg) #4


!llvm.module.flags = !{!0, !1, !2, !3}
!llvm.ident = !{!4}

!0 = !{i32 1, !"wchar_size", i32 4}
!1 = !{i32 7, !"PIC Level", i32 2}
!2 = !{i32 7, !"PIE Level", i32 2}
!3 = !{i32 7, !"uwtable", i32 1}
!4 = !{!"clang version 13.0.0"}
!5 = !{!6, !6, i64 0}
!6 = !{!"omnipotent char", !7, i64 0}
!7 = !{!"Simple C/C++ TBAA"}
!8 = distinct !{!8, !9}
!9 = !{!"llvm.loop.mustprogress"}
